target datalayout = "e-m:e-p270:32:32-p271:32:32-p272:64:64-i64:64-i128:128-f80:128-n8:16:32:64-S128"
target triple = "x86_64-pc-linux-gnu"

%struct.AVPixFmtDescriptor = type { ptr, i8, i8, i8, i64, [4 x %struct.AVComponentDescriptor], ptr }
%struct.AVComponentDescriptor = type { i32, i32, i32, i32, i32 }

; Function Attrs: nounwind uwtable
define void @av_image_fill_max_pixsteps(ptr noundef %0, ptr noundef %1, ptr noundef %2) #0 {
  %4 = alloca ptr, align 8
  %5 = alloca ptr, align 8
  %6 = alloca ptr, align 8
  %7 = alloca i32, align 4
  %8 = alloca ptr, align 8
  store ptr %0, ptr %4, align 8, !tbaa !4
  store ptr %1, ptr %5, align 8, !tbaa !4
  store ptr %2, ptr %6, align 8, !tbaa !9
  call void @llvm.lifetime.start.p0(i64 4, ptr %7) #9
  %9 = load ptr, ptr %4, align 8, !tbaa !4
  call void @llvm.memset.p0.i64(ptr align 4 %9, i8 0, i64 16, i1 false)
  %10 = load ptr, ptr %5, align 8, !tbaa !4
  %11 = icmp ne ptr %10, null
  br i1 %11, label %12, label %14

12:                                               ; preds = %3
  %13 = load ptr, ptr %5, align 8, !tbaa !4
  call void @llvm.memset.p0.i64(ptr align 4 %13, i8 0, i64 16, i1 false)
  br label %14

14:                                               ; preds = %12, %3
  store i32 0, ptr %7, align 4, !tbaa !11
  br label %15

15:                                               ; preds = %57, %14
  %16 = load i32, ptr %7, align 4, !tbaa !11
  %17 = icmp slt i32 %16, 4
  br i1 %17, label %18, label %60

18:                                               ; preds = %15
  call void @llvm.lifetime.start.p0(i64 8, ptr %8) #9
  %19 = load ptr, ptr %6, align 8, !tbaa !9
  %20 = getelementptr inbounds nuw %struct.AVPixFmtDescriptor, ptr %19, i32 0, i32 5
  %21 = load i32, ptr %7, align 4, !tbaa !11
  %22 = sext i32 %21 to i64
  %23 = getelementptr inbounds [4 x %struct.AVComponentDescriptor], ptr %20, i64 0, i64 %22
  store ptr %23, ptr %8, align 8, !tbaa !13
  %24 = load ptr, ptr %8, align 8, !tbaa !13
  %25 = getelementptr inbounds nuw %struct.AVComponentDescriptor, ptr %24, i32 0, i32 1
  %26 = load i32, ptr %25, align 4, !tbaa !15
  %27 = load ptr, ptr %4, align 8, !tbaa !4
  %28 = load ptr, ptr %8, align 8, !tbaa !13
  %29 = getelementptr inbounds nuw %struct.AVComponentDescriptor, ptr %28, i32 0, i32 0
  %30 = load i32, ptr %29, align 4, !tbaa !17
  %31 = sext i32 %30 to i64
  %32 = getelementptr inbounds i32, ptr %27, i64 %31
  %33 = load i32, ptr %32, align 4, !tbaa !11
  %34 = icmp sgt i32 %26, %33
  br i1 %34, label %35, label %56

35:                                               ; preds = %18
  %36 = load ptr, ptr %8, align 8, !tbaa !13
  %37 = getelementptr inbounds nuw %struct.AVComponentDescriptor, ptr %36, i32 0, i32 1
  %38 = load i32, ptr %37, align 4, !tbaa !15
  %39 = load ptr, ptr %4, align 8, !tbaa !4
  %40 = load ptr, ptr %8, align 8, !tbaa !13
  %41 = getelementptr inbounds nuw %struct.AVComponentDescriptor, ptr %40, i32 0, i32 0
  %42 = load i32, ptr %41, align 4, !tbaa !17
  %43 = sext i32 %42 to i64
  %44 = getelementptr inbounds i32, ptr %39, i64 %43
  store i32 %38, ptr %44, align 4, !tbaa !11
  %45 = load ptr, ptr %5, align 8, !tbaa !4
  %46 = icmp ne ptr %45, null
  br i1 %46, label %47, label %55

47:                                               ; preds = %35
  %48 = load i32, ptr %7, align 4, !tbaa !11
  %49 = load ptr, ptr %5, align 8, !tbaa !4
  %50 = load ptr, ptr %8, align 8, !tbaa !13
  %51 = getelementptr inbounds nuw %struct.AVComponentDescriptor, ptr %50, i32 0, i32 0
  %52 = load i32, ptr %51, align 4, !tbaa !17
  %53 = sext i32 %52 to i64
  %54 = getelementptr inbounds i32, ptr %49, i64 %53
  store i32 %48, ptr %54, align 4, !tbaa !11
  br label %55

55:                                               ; preds = %47, %35
  br label %56

56:                                               ; preds = %55, %18
  call void @llvm.lifetime.end.p0(i64 8, ptr %8) #9
  br label %57

57:                                               ; preds = %56
  %58 = load i32, ptr %7, align 4, !tbaa !11
  %59 = add nsw i32 %58, 1
  store i32 %59, ptr %7, align 4, !tbaa !11
  br label %15, !llvm.loop !18

60:                                               ; preds = %15
  call void @llvm.lifetime.end.p0(i64 4, ptr %7) #9
  ret void
}