; Function Attrs: nofree norecurse nosync nounwind memory(argmem: readwrite) uwtable
define void @av_image_fill_max_pixsteps(ptr noundef captures(none) initializes((0, 16)) %0, ptr noundef writeonly captures(address_is_null) %1, ptr noundef readonly captures(none) %2) local_unnamed_addr #0 {
  tail call void @llvm.memset.p0.i64(ptr noundef nonnull align 4 dereferenceable(16) %0, i8 0, i64 16, i1 false)
  %.not = icmp eq ptr %1, null
  br i1 %.not, label %.split.us.preheader, label %.split.preheader

.split.preheader:                                 ; preds = %3
  tail call void @llvm.memset.p0.i64(ptr noundef nonnull align 4 dereferenceable(16) %1, i8 0, i64 16, i1 false)
  %4 = getelementptr inbounds nuw i8, ptr %2, i64 24
  br label %.split

.split.us.preheader:                              ; preds = %3
  %5 = getelementptr inbounds nuw i8, ptr %2, i64 24
  br label %.split.us

.split.us:                                        ; preds = %.split.us.preheader, %15
  %indvars.iv23 = phi i64 [ 0, %.split.us.preheader ], [ %indvars.iv.next24, %15 ]
  %6 = getelementptr inbounds nuw [4 x %struct.AVComponentDescriptor], ptr %5, i64 0, i64 %indvars.iv23
  %7 = getelementptr inbounds nuw i8, ptr %6, i64 4
  %8 = load i32, ptr %7, align 4, !tbaa !4
  %9 = load i32, ptr %6, align 4, !tbaa !9
  %10 = sext i32 %9 to i64
  %11 = getelementptr inbounds i32, ptr %0, i64 %10
  %12 = load i32, ptr %11, align 4, !tbaa !10
  %13 = icmp sgt i32 %8, %12
  br i1 %13, label %14, label %15

14:                                               ; preds = %.split.us
  store i32 %8, ptr %11, align 4, !tbaa !10
  br label %15

15:                                               ; preds = %14, %.split.us
  %indvars.iv.next24 = add nuw nsw i64 %indvars.iv23, 1
  %exitcond26.not = icmp eq i64 %indvars.iv.next24, 4
  br i1 %exitcond26.not, label %.split20.us, label %.split.us, !llvm.loop !11

.split:                                           ; preds = %.split.preheader, %29
  %indvars.iv = phi i64 [ 0, %.split.preheader ], [ %indvars.iv.next, %29 ]
  %16 = getelementptr inbounds nuw [4 x %struct.AVComponentDescriptor], ptr %4, i64 0, i64 %indvars.iv
  %17 = getelementptr inbounds nuw i8, ptr %16, i64 4
  %18 = load i32, ptr %17, align 4, !tbaa !4
  %19 = load i32, ptr %16, align 4, !tbaa !9
  %20 = sext i32 %19 to i64
  %21 = getelementptr inbounds i32, ptr %0, i64 %20
  %22 = load i32, ptr %21, align 4, !tbaa !10
  %23 = icmp sgt i32 %18, %22
  br i1 %23, label %24, label %29

24:                                               ; preds = %.split
  store i32 %18, ptr %21, align 4, !tbaa !10
  %25 = load i32, ptr %16, align 4, !tbaa !9
  %26 = sext i32 %25 to i64
  %27 = getelementptr inbounds i32, ptr %1, i64 %26
  %28 = trunc nuw nsw i64 %indvars.iv to i32
  store i32 %28, ptr %27, align 4, !tbaa !10
  br label %29

29:                                               ; preds = %24, %.split
  %indvars.iv.next = add nuw nsw i64 %indvars.iv, 1
  %exitcond.not = icmp eq i64 %indvars.iv.next, 4
  br i1 %exitcond.not, label %.split20.us, label %.split, !llvm.loop !11

.split20.us:                                      ; preds = %29, %15
  ret void
}